target datalayout = "e-m:e-p270:32:32-p271:32:32-p272:64:64-i64:64-i128:128-f80:128-n8:16:32:64-S128"
target triple = "x86_64-pc-linux-gnu"

%"struct.gmx::BiasCoupledToSystem" = type { %"class.gmx::Bias", %"class.std::vector.25" }
%"class.gmx::Bias" = type <{ %"class.std::vector", %"class.gmx::BiasGrid", %"class.gmx::BiasParams", %"class.gmx::BiasState", %"class.std::vector.25", i8, [7 x i8], %"class.std::vector.15", %"class.std::unique_ptr", %"class.std::unique_ptr.32", %"class.std::vector.40", %"class.std::vector.15", i32, [4 x i8] }>
%"class.std::vector" = type { %"struct.std::_Vector_base" }
%"struct.std::_Vector_base" = type { %"struct.std::_Vector_base<gmx::DimParams, std::allocator<gmx::DimParams>>::_Vector_impl" }
%"struct.std::_Vector_base<gmx::DimParams, std::allocator<gmx::DimParams>>::_Vector_impl" = type { %"struct.std::_Vector_base<gmx::DimParams, std::allocator<gmx::DimParams>>::_Vector_impl_data" }
%"struct.std::_Vector_base<gmx::DimParams, std::allocator<gmx::DimParams>>::_Vector_impl_data" = type { ptr, ptr, ptr }
%"class.gmx::BiasGrid" = type { %"class.std::vector.0", %"class.std::vector.5" }
%"class.std::vector.0" = type { %"struct.std::_Vector_base.1" }
%"struct.std::_Vector_base.1" = type { %"struct.std::_Vector_base<gmx::GridPoint, std::allocator<gmx::GridPoint>>::_Vector_impl" }
%"struct.std::_Vector_base<gmx::GridPoint, std::allocator<gmx::GridPoint>>::_Vector_impl" = type { %"struct.std::_Vector_base<gmx::GridPoint, std::allocator<gmx::GridPoint>>::_Vector_impl_data" }
%"struct.std::_Vector_base<gmx::GridPoint, std::allocator<gmx::GridPoint>>::_Vector_impl_data" = type { ptr, ptr, ptr }
%"class.std::vector.5" = type { %"struct.std::_Vector_base.6" }
%"struct.std::_Vector_base.6" = type { %"struct.std::_Vector_base<gmx::GridAxis, std::allocator<gmx::GridAxis>>::_Vector_impl" }
%"struct.std::_Vector_base<gmx::GridAxis, std::allocator<gmx::GridAxis>>::_Vector_impl" = type { %"struct.std::_Vector_base<gmx::GridAxis, std::allocator<gmx::GridAxis>>::_Vector_impl_data" }
%"struct.std::_Vector_base<gmx::GridAxis, std::allocator<gmx::GridAxis>>::_Vector_impl_data" = type { ptr, ptr, ptr }
%"class.gmx::BiasParams" = type <{ double, i64, i32, [4 x i8], i64, i64, i32, i8, [3 x i8], double, double, double, i8, [3 x i8], i32, double, double, double, double, [4 x i32], i8, [3 x i8], i32, i8, [7 x i8] }>
%"class.gmx::BiasState" = type { %"class.gmx::CoordState", %"class.std::vector.10", %"class.std::vector.15", %"class.gmx::HistogramSize", [4 x i32], [4 x i32], ptr, %"class.std::vector.20" }
%"class.gmx::CoordState" = type { [4 x double], i32, i32 }
%"class.std::vector.10" = type { %"struct.std::_Vector_base.11" }
%"struct.std::_Vector_base.11" = type { %"struct.std::_Vector_base<gmx::PointState, std::allocator<gmx::PointState>>::_Vector_impl" }
%"struct.std::_Vector_base<gmx::PointState, std::allocator<gmx::PointState>>::_Vector_impl" = type { %"struct.std::_Vector_base<gmx::PointState, std::allocator<gmx::PointState>>::_Vector_impl_data" }
%"struct.std::_Vector_base<gmx::PointState, std::allocator<gmx::PointState>>::_Vector_impl_data" = type { ptr, ptr, ptr }
%"class.gmx::HistogramSize" = type <{ i64, double, i8, [7 x i8], double, i8, [7 x i8], double, double, i8, [7 x i8] }>
%"class.std::vector.20" = type { %"struct.std::_Vector_base.21" }
%"struct.std::_Vector_base.21" = type { %"struct.std::_Vector_base<std::vector<double>, std::allocator<std::vector<double>>>::_Vector_impl" }
%"struct.std::_Vector_base<std::vector<double>, std::allocator<std::vector<double>>>::_Vector_impl" = type { %"struct.std::_Vector_base<std::vector<double>, std::allocator<std::vector<double>>>::_Vector_impl_data" }
%"struct.std::_Vector_base<std::vector<double>, std::allocator<std::vector<double>>>::_Vector_impl_data" = type { ptr, ptr, ptr }
%"class.std::unique_ptr" = type { %"struct.std::__uniq_ptr_data" }
%"struct.std::__uniq_ptr_data" = type { %"class.std::__uniq_ptr_impl" }
%"class.std::__uniq_ptr_impl" = type { %"class.std::tuple" }
%"class.std::tuple" = type { %"struct.std::_Tuple_impl" }
%"struct.std::_Tuple_impl" = type { %"struct.std::_Head_base.31" }
%"struct.std::_Head_base.31" = type { ptr }
%"class.std::unique_ptr.32" = type { %"struct.std::__uniq_ptr_data.33" }
%"struct.std::__uniq_ptr_data.33" = type { %"class.std::__uniq_ptr_impl.34" }
%"class.std::__uniq_ptr_impl.34" = type { %"class.std::tuple.35" }
%"class.std::tuple.35" = type { %"struct.std::_Tuple_impl.36" }
%"struct.std::_Tuple_impl.36" = type { %"struct.std::_Head_base.39" }
%"struct.std::_Head_base.39" = type { ptr }
%"class.std::vector.40" = type { %"struct.std::_Vector_base.41" }
%"struct.std::_Vector_base.41" = type { %"struct.std::_Vector_base<double, gmx::Allocator<double, gmx::AlignedAllocationPolicy>>::_Vector_impl" }
%"struct.std::_Vector_base<double, gmx::Allocator<double, gmx::AlignedAllocationPolicy>>::_Vector_impl" = type { %"struct.std::_Vector_base<double, gmx::Allocator<double, gmx::AlignedAllocationPolicy>>::_Vector_impl_data" }
%"struct.std::_Vector_base<double, gmx::Allocator<double, gmx::AlignedAllocationPolicy>>::_Vector_impl_data" = type { ptr, ptr, ptr }
%"class.std::vector.15" = type { %"struct.std::_Vector_base.16" }
%"struct.std::_Vector_base.16" = type { %"struct.std::_Vector_base<double, std::allocator<double>>::_Vector_impl" }
%"struct.std::_Vector_base<double, std::allocator<double>>::_Vector_impl" = type { %"struct.std::_Vector_base<double, std::allocator<double>>::_Vector_impl_data" }
%"struct.std::_Vector_base<double, std::allocator<double>>::_Vector_impl_data" = type { ptr, ptr, ptr }
%"class.std::vector.25" = type { %"struct.std::_Vector_base.26" }
%"struct.std::_Vector_base.26" = type { %"struct.std::_Vector_base<int, std::allocator<int>>::_Vector_impl" }
%"struct.std::_Vector_base<int, std::allocator<int>>::_Vector_impl" = type { %"struct.std::_Vector_base<int, std::allocator<int>>::_Vector_impl_data" }
%"struct.std::_Vector_base<int, std::allocator<int>>::_Vector_impl_data" = type { ptr, ptr, ptr }
%"class.std::unique_ptr.85" = type { %"struct.std::__uniq_ptr_data.86" }
%"struct.std::__uniq_ptr_data.86" = type { %"class.std::__uniq_ptr_impl.87" }
%"class.std::__uniq_ptr_impl.87" = type { %"class.std::tuple.88" }
%"class.std::tuple.88" = type { %"struct.std::_Tuple_impl.89" }
%"struct.std::_Tuple_impl.89" = type { %"struct.std::_Head_base.92" }
%"struct.std::_Head_base.92" = type { ptr }
%"class.__gnu_cxx::__normal_iterator.213" = type { ptr }
%"class.gmx::Awh" = type { %"class.std::vector.80", i64, i32, ptr, %"class.std::unique_ptr.85", ptr, double, i32, i32 }
%"class.std::vector.80" = type { %"struct.std::_Vector_base.81" }
%"struct.std::_Vector_base.81" = type { %"struct.std::_Vector_base<gmx::BiasCoupledToSystem, std::allocator<gmx::BiasCoupledToSystem>>::_Vector_impl" }
%"struct.std::_Vector_base<gmx::BiasCoupledToSystem, std::allocator<gmx::BiasCoupledToSystem>>::_Vector_impl" = type { %"struct.std::_Vector_base<gmx::BiasCoupledToSystem, std::allocator<gmx::BiasCoupledToSystem>>::_Vector_impl_data" }
%"struct.std::_Vector_base<gmx::BiasCoupledToSystem, std::allocator<gmx::BiasCoupledToSystem>>::_Vector_impl_data" = type { ptr, ptr, ptr }
%struct.t_enxframe = type { double, i64, i64, double, i32, i32, i32, i32, ptr, i32, ptr, i32 }
%struct.t_enxblock = type { i32, i32, ptr, i32 }
%struct.t_enxsubblock = type { i32, i32, ptr, ptr, ptr, ptr, ptr, ptr, i32, i32, i32, i32, i32, i32 }

; Function Attrs: mustprogress nounwind uwtable
define linkonce_odr noundef nonnull align 8 dereferenceable(8) ptr @_ZNK9__gnu_cxx17__normal_iteratorIPN3gmx19BiasCoupledToSystemESt6vectorIS2_SaIS2_EEE4baseEv(ptr noundef nonnull align 8 dereferenceable(8) %0) #1 comdat align 2 {
  %2 = alloca ptr, align 8
  store ptr %0, ptr %2, align 8
  %3 = load ptr, ptr %2, align 8
  %4 = getelementptr inbounds %"class.__gnu_cxx::__normal_iterator.213", ptr %3, i32 0, i32 0
  ret ptr %4
}

; Function Attrs: mustprogress nounwind uwtable
define linkonce_odr void @_ZN9__gnu_cxx17__normal_iteratorIPN3gmx19BiasCoupledToSystemESt6vectorIS2_SaIS2_EEEC2ERKS3_(ptr noundef nonnull align 8 dereferenceable(8) %0, ptr noundef nonnull align 8 dereferenceable(8) %1) unnamed_addr #1 comdat align 2 {
  %3 = alloca ptr, align 8
  %4 = alloca ptr, align 8
  store ptr %0, ptr %3, align 8
  store ptr %1, ptr %4, align 8
  %5 = load ptr, ptr %3, align 8
  %6 = getelementptr inbounds %"class.__gnu_cxx::__normal_iterator.213", ptr %5, i32 0, i32 0
  %7 = load ptr, ptr %4, align 8
  %8 = load ptr, ptr %7, align 8
  store ptr %8, ptr %6, align 8
  ret void
}

; Function Attrs: mustprogress nounwind uwtable
define linkonce_odr noundef nonnull align 8 dereferenceable(8) ptr @_ZN9__gnu_cxx17__normal_iteratorIPN3gmx19BiasCoupledToSystemESt6vectorIS2_SaIS2_EEEppEv(ptr noundef nonnull align 8 dereferenceable(8) %0) #1 comdat align 2 {
  %2 = alloca ptr, align 8
  store ptr %0, ptr %2, align 8
  %3 = load ptr, ptr %2, align 8
  %4 = getelementptr inbounds %"class.__gnu_cxx::__normal_iterator.213", ptr %3, i32 0, i32 0
  %5 = load ptr, ptr %4, align 8
  %6 = getelementptr inbounds %"struct.gmx::BiasCoupledToSystem", ptr %5, i32 1
  store ptr %6, ptr %4, align 8
  ret ptr %3
}

; Function Attrs: mustprogress nounwind uwtable
define linkonce_odr noundef nonnull align 8 dereferenceable(584) ptr @_ZNK9__gnu_cxx17__normal_iteratorIPN3gmx19BiasCoupledToSystemESt6vectorIS2_SaIS2_EEEdeEv(ptr noundef nonnull align 8 dereferenceable(8) %0) #1 comdat align 2 {
  %2 = alloca ptr, align 8
  store ptr %0, ptr %2, align 8
  %3 = load ptr, ptr %2, align 8
  %4 = getelementptr inbounds %"class.__gnu_cxx::__normal_iterator.213", ptr %3, i32 0, i32 0
  %5 = load ptr, ptr %4, align 8
  ret ptr %5
}

; Function Attrs: mustprogress nounwind uwtable
define linkonce_odr noundef zeroext i1 @_ZN9__gnu_cxxneIPN3gmx19BiasCoupledToSystemESt6vectorIS2_SaIS2_EEEEbRKNS_17__normal_iteratorIT_T0_EESC_(ptr noundef nonnull align 8 dereferenceable(8) %0, ptr noundef nonnull align 8 dereferenceable(8) %1) #1 comdat {
  %3 = alloca ptr, align 8
  %4 = alloca ptr, align 8
  store ptr %0, ptr %3, align 8
  store ptr %1, ptr %4, align 8
  %5 = load ptr, ptr %3, align 8
  %6 = call noundef nonnull align 8 dereferenceable(8) ptr @_ZNK9__gnu_cxx17__normal_iteratorIPN3gmx19BiasCoupledToSystemESt6vectorIS2_SaIS2_EEE4baseEv(ptr noundef nonnull align 8 dereferenceable(8) %5) #11
  %7 = load ptr, ptr %6, align 8
  %8 = load ptr, ptr %4, align 8
  %9 = call noundef nonnull align 8 dereferenceable(8) ptr @_ZNK9__gnu_cxx17__normal_iteratorIPN3gmx19BiasCoupledToSystemESt6vectorIS2_SaIS2_EEE4baseEv(ptr noundef nonnull align 8 dereferenceable(8) %8) #11
  %10 = load ptr, ptr %9, align 8
  %11 = icmp ne ptr %7, %10
  ret i1 %11
}

; Function Attrs: mustprogress nounwind uwtable
define linkonce_odr ptr @_ZNSt6vectorIN3gmx19BiasCoupledToSystemESaIS1_EE3endEv(ptr noundef nonnull align 8 dereferenceable(24) %0) #1 comdat align 2 {
  %2 = alloca %"class.__gnu_cxx::__normal_iterator.213", align 8
  %3 = alloca ptr, align 8
  store ptr %0, ptr %3, align 8
  %4 = load ptr, ptr %3, align 8
  %5 = getelementptr inbounds %"struct.std::_Vector_base.81", ptr %4, i32 0, i32 0
  %6 = getelementptr inbounds %"struct.std::_Vector_base<gmx::BiasCoupledToSystem, std::allocator<gmx::BiasCoupledToSystem>>::_Vector_impl_data", ptr %5, i32 0, i32 1
  call void @_ZN9__gnu_cxx17__normal_iteratorIPN3gmx19BiasCoupledToSystemESt6vectorIS2_SaIS2_EEEC2ERKS3_(ptr noundef nonnull align 8 dereferenceable(8) %2, ptr noundef nonnull align 8 dereferenceable(8) %6) #11
  %7 = getelementptr inbounds %"class.__gnu_cxx::__normal_iterator.213", ptr %2, i32 0, i32 0
  %8 = load ptr, ptr %7, align 8
  ret ptr %8
}

; Function Attrs: mustprogress nounwind uwtable
define linkonce_odr ptr @_ZNSt6vectorIN3gmx19BiasCoupledToSystemESaIS1_EE5beginEv(ptr noundef nonnull align 8 dereferenceable(24) %0) #1 comdat align 2 {
  %2 = alloca %"class.__gnu_cxx::__normal_iterator.213", align 8
  %3 = alloca ptr, align 8
  store ptr %0, ptr %3, align 8
  %4 = load ptr, ptr %3, align 8
  %5 = getelementptr inbounds %"struct.std::_Vector_base.81", ptr %4, i32 0, i32 0
  %6 = getelementptr inbounds %"struct.std::_Vector_base<gmx::BiasCoupledToSystem, std::allocator<gmx::BiasCoupledToSystem>>::_Vector_impl_data", ptr %5, i32 0, i32 0
  call void @_ZN9__gnu_cxx17__normal_iteratorIPN3gmx19BiasCoupledToSystemESt6vectorIS2_SaIS2_EEEC2ERKS3_(ptr noundef nonnull align 8 dereferenceable(8) %2, ptr noundef nonnull align 8 dereferenceable(8) %6) #11
  %7 = getelementptr inbounds %"class.__gnu_cxx::__normal_iterator.213", ptr %2, i32 0, i32 0
  %8 = load ptr, ptr %7, align 8
  ret ptr %8
}

; Function Attrs: mustprogress nounwind uwtable
define noundef zeroext i1 @_ZNK3gmx3Awh12isOutputStepEl(ptr noundef nonnull align 8 dereferenceable(80) %0, i64 noundef %1) #1 align 2 {
  %3 = alloca ptr, align 8
  %4 = alloca i64, align 8
  store ptr %0, ptr %3, align 8
  store i64 %1, ptr %4, align 8
  %5 = load ptr, ptr %3, align 8
  %6 = getelementptr inbounds %"class.gmx::Awh", ptr %5, i32 0, i32 2
  %7 = load i32, ptr %6, align 8
  %8 = icmp sgt i32 %7, 0
  br i1 %8, label %9, label %16

9:                                                ; preds = %2
  %10 = load i64, ptr %4, align 8
  %11 = getelementptr inbounds %"class.gmx::Awh", ptr %5, i32 0, i32 2
  %12 = load i32, ptr %11, align 8
  %13 = sext i32 %12 to i64
  %14 = srem i64 %10, %13
  %15 = icmp eq i64 %14, 0
  br label %16

16:                                               ; preds = %9, %2
  %17 = phi i1 [ false, %2 ], [ %15, %9 ]
  ret i1 %17
}

; Function Attrs: mustprogress uwtable
define void @_ZN3gmx3Awh18writeToEnergyFrameElP10t_enxframe(ptr noundef nonnull align 8 dereferenceable(80) %0, i64 noundef %1, ptr noundef %2) #0 align 2 {
  %4 = alloca ptr, align 8
  %5 = alloca i64, align 8
  %6 = alloca ptr, align 8
  %7 = alloca i32, align 4
  %8 = alloca ptr, align 8
  %9 = alloca %"class.__gnu_cxx::__normal_iterator.213", align 8
  %10 = alloca %"class.__gnu_cxx::__normal_iterator.213", align 8
  %11 = alloca ptr, align 8
  %12 = alloca ptr, align 8
  %13 = alloca ptr, align 8
  %14 = alloca %"class.__gnu_cxx::__normal_iterator.213", align 8
  %15 = alloca %"class.__gnu_cxx::__normal_iterator.213", align 8
  %16 = alloca ptr, align 8
  %17 = alloca i32, align 4
  %18 = alloca ptr, align 8
  %19 = alloca %"class.__gnu_cxx::__normal_iterator.213", align 8
  %20 = alloca %"class.__gnu_cxx::__normal_iterator.213", align 8
  %21 = alloca ptr, align 8
  store ptr %0, ptr %4, align 8
  store i64 %1, ptr %5, align 8
  store ptr %2, ptr %6, align 8
  %22 = load ptr, ptr %4, align 8
  %23 = load i64, ptr %5, align 8
  %24 = call noundef zeroext i1 @_ZNK3gmx3Awh12isOutputStepEl(ptr noundef nonnull align 8 dereferenceable(80) %22, i64 noundef %23)
  br i1 %24, label %26, label %25

25:                                               ; preds = %3
  br label %104

26:                                               ; preds = %3
  store i32 0, ptr %7, align 4
  %27 = getelementptr inbounds %"class.gmx::Awh", ptr %22, i32 0, i32 0
  store ptr %27, ptr %8, align 8
  %28 = load ptr, ptr %8, align 8
  %29 = call ptr @_ZNSt6vectorIN3gmx19BiasCoupledToSystemESaIS1_EE5beginEv(ptr noundef nonnull align 8 dereferenceable(24) %28) #11
  %30 = getelementptr inbounds %"class.__gnu_cxx::__normal_iterator.213", ptr %9, i32 0, i32 0
  store ptr %29, ptr %30, align 8
  %31 = load ptr, ptr %8, align 8
  %32 = call ptr @_ZNSt6vectorIN3gmx19BiasCoupledToSystemESaIS1_EE3endEv(ptr noundef nonnull align 8 dereferenceable(24) %31) #11
  %33 = getelementptr inbounds %"class.__gnu_cxx::__normal_iterator.213", ptr %10, i32 0, i32 0
  store ptr %32, ptr %33, align 8
  br label %34

34:                                               ; preds = %43, %26
  %35 = call noundef zeroext i1 @_ZN9__gnu_cxxneIPN3gmx19BiasCoupledToSystemESt6vectorIS2_SaIS2_EEEEbRKNS_17__normal_iteratorIT_T0_EESC_(ptr noundef nonnull align 8 dereferenceable(8) %9, ptr noundef nonnull align 8 dereferenceable(8) %10) #11
  br i1 %35, label %36, label %45

36:                                               ; preds = %34
  %37 = call noundef nonnull align 8 dereferenceable(584) ptr @_ZNK9__gnu_cxx17__normal_iteratorIPN3gmx19BiasCoupledToSystemESt6vectorIS2_SaIS2_EEEdeEv(ptr noundef nonnull align 8 dereferenceable(8) %9) #11
  store ptr %37, ptr %11, align 8
  %38 = load ptr, ptr %11, align 8
  %39 = getelementptr inbounds %"struct.gmx::BiasCoupledToSystem", ptr %38, i32 0, i32 0
  %40 = call noundef i32 @_ZNK3gmx4Bias25numEnergySubblocksToWriteEv(ptr noundef nonnull align 8 dereferenceable(556) %39)
  %41 = load i32, ptr %7, align 4
  %42 = add nsw i32 %41, %40
  store i32 %42, ptr %7, align 4
  br label %43

43:                                               ; preds = %36
  %44 = call noundef nonnull align 8 dereferenceable(8) ptr @_ZN9__gnu_cxx17__normal_iteratorIPN3gmx19BiasCoupledToSystemESt6vectorIS2_SaIS2_EEEppEv(ptr noundef nonnull align 8 dereferenceable(8) %9) #11
  br label %34

45:                                               ; preds = %34
  %46 = load ptr, ptr %6, align 8
  %47 = load ptr, ptr %6, align 8
  %48 = getelementptr inbounds %struct.t_enxframe, ptr %47, i32 0, i32 9
  %49 = load i32, ptr %48, align 8
  %50 = add nsw i32 %49, 1
  call void @_Z19add_blocks_enxframeP10t_enxframei(ptr noundef %46, i32 noundef %50)
  %51 = load ptr, ptr %6, align 8
  %52 = getelementptr inbounds %struct.t_enxframe, ptr %51, i32 0, i32 10
  %53 = load ptr, ptr %52, align 8
  %54 = load ptr, ptr %6, align 8
  %55 = getelementptr inbounds %struct.t_enxframe, ptr %54, i32 0, i32 9
  %56 = load i32, ptr %55, align 8
  %57 = sub nsw i32 %56, 1
  %58 = sext i32 %57 to i64
  %59 = getelementptr inbounds %struct.t_enxblock, ptr %53, i64 %58
  store ptr %59, ptr %12, align 8
  %60 = load ptr, ptr %12, align 8
  %61 = load i32, ptr %7, align 4
  call void @_Z22add_subblocks_enxblockP10t_enxblocki(ptr noundef %60, i32 noundef %61)
  %62 = load ptr, ptr %12, align 8
  %63 = getelementptr inbounds %struct.t_enxblock, ptr %62, i32 0, i32 0
  store i32 7, ptr %63, align 8
  %64 = getelementptr inbounds %"class.gmx::Awh", ptr %22, i32 0, i32 0
  store ptr %64, ptr %13, align 8
  %65 = load ptr, ptr %13, align 8
  %66 = call ptr @_ZNSt6vectorIN3gmx19BiasCoupledToSystemESaIS1_EE5beginEv(ptr noundef nonnull align 8 dereferenceable(24) %65) #11
  %67 = getelementptr inbounds %"class.__gnu_cxx::__normal_iterator.213", ptr %14, i32 0, i32 0
  store ptr %66, ptr %67, align 8
  %68 = load ptr, ptr %13, align 8
  %69 = call ptr @_ZNSt6vectorIN3gmx19BiasCoupledToSystemESaIS1_EE3endEv(ptr noundef nonnull align 8 dereferenceable(24) %68) #11
  %70 = getelementptr inbounds %"class.__gnu_cxx::__normal_iterator.213", ptr %15, i32 0, i32 0
  store ptr %69, ptr %70, align 8
  br label %71

71:                                               ; preds = %77, %45
  %72 = call noundef zeroext i1 @_ZN9__gnu_cxxneIPN3gmx19BiasCoupledToSystemESt6vectorIS2_SaIS2_EEEEbRKNS_17__normal_iteratorIT_T0_EESC_(ptr noundef nonnull align 8 dereferenceable(8) %14, ptr noundef nonnull align 8 dereferenceable(8) %15) #11
  br i1 %72, label %73, label %79

73:                                               ; preds = %71
  %74 = call noundef nonnull align 8 dereferenceable(584) ptr @_ZNK9__gnu_cxx17__normal_iteratorIPN3gmx19BiasCoupledToSystemESt6vectorIS2_SaIS2_EEEdeEv(ptr noundef nonnull align 8 dereferenceable(8) %14) #11
  store ptr %74, ptr %16, align 8
  %75 = load ptr, ptr %16, align 8
  %76 = getelementptr inbounds %"struct.gmx::BiasCoupledToSystem", ptr %75, i32 0, i32 0
  call void @_ZN3gmx4Bias50updateBiasStateSharedCorrelationTensorTimeIntegralEv(ptr noundef nonnull align 8 dereferenceable(556) %76)
  br label %77

77:                                               ; preds = %73
  %78 = call noundef nonnull align 8 dereferenceable(8) ptr @_ZN9__gnu_cxx17__normal_iteratorIPN3gmx19BiasCoupledToSystemESt6vectorIS2_SaIS2_EEEppEv(ptr noundef nonnull align 8 dereferenceable(8) %14) #11
  br label %71

79:                                               ; preds = %71
  store i32 0, ptr %17, align 4
  %80 = getelementptr inbounds %"class.gmx::Awh", ptr %22, i32 0, i32 0
  store ptr %80, ptr %18, align 8
  %81 = load ptr, ptr %18, align 8
  %82 = call ptr @_ZNSt6vectorIN3gmx19BiasCoupledToSystemESaIS1_EE5beginEv(ptr noundef nonnull align 8 dereferenceable(24) %81) #11
  %83 = getelementptr inbounds %"class.__gnu_cxx::__normal_iterator.213", ptr %19, i32 0, i32 0
  store ptr %82, ptr %83, align 8
  %84 = load ptr, ptr %18, align 8
  %85 = call ptr @_ZNSt6vectorIN3gmx19BiasCoupledToSystemESaIS1_EE3endEv(ptr noundef nonnull align 8 dereferenceable(24) %84) #11
  %86 = getelementptr inbounds %"class.__gnu_cxx::__normal_iterator.213", ptr %20, i32 0, i32 0
  store ptr %85, ptr %86, align 8
  br label %87

87:                                               ; preds = %102, %79
  %88 = call noundef zeroext i1 @_ZN9__gnu_cxxneIPN3gmx19BiasCoupledToSystemESt6vectorIS2_SaIS2_EEEEbRKNS_17__normal_iteratorIT_T0_EESC_(ptr noundef nonnull align 8 dereferenceable(8) %19, ptr noundef nonnull align 8 dereferenceable(8) %20) #11
  br i1 %88, label %89, label %104

89:                                               ; preds = %87
  %90 = call noundef nonnull align 8 dereferenceable(584) ptr @_ZNK9__gnu_cxx17__normal_iteratorIPN3gmx19BiasCoupledToSystemESt6vectorIS2_SaIS2_EEEdeEv(ptr noundef nonnull align 8 dereferenceable(8) %19) #11
  store ptr %90, ptr %21, align 8
  %91 = load ptr, ptr %21, align 8
  %92 = getelementptr inbounds %"struct.gmx::BiasCoupledToSystem", ptr %91, i32 0, i32 0
  %93 = load ptr, ptr %12, align 8
  %94 = getelementptr inbounds %struct.t_enxblock, ptr %93, i32 0, i32 2
  %95 = load ptr, ptr %94, align 8
  %96 = load i32, ptr %17, align 4
  %97 = sext i32 %96 to i64
  %98 = getelementptr inbounds %struct.t_enxsubblock, ptr %95, i64 %97
  %99 = call noundef i32 @_ZNK3gmx4Bias22writeToEnergySubblocksEP13t_enxsubblock(ptr noundef nonnull align 8 dereferenceable(556) %92, ptr noundef %98)
  %100 = load i32, ptr %17, align 4
  %101 = add nsw i32 %100, %99
  store i32 %101, ptr %17, align 4
  br label %102

102:                                              ; preds = %89
  %103 = call noundef nonnull align 8 dereferenceable(8) ptr @_ZN9__gnu_cxx17__normal_iteratorIPN3gmx19BiasCoupledToSystemESt6vectorIS2_SaIS2_EEEppEv(ptr noundef nonnull align 8 dereferenceable(8) %19) #11
  br label %87

104:                                              ; preds = %87, %25
  ret void
}