; Function Attrs: mustprogress uwtable
define void @_ZN3gmx3Awh18writeToEnergyFrameElP10t_enxframe(ptr nocapture noundef nonnull readonly align 8 dereferenceable(80) %0, i64 noundef %1, ptr noundef %2) local_unnamed_addr #0 align 2 {
  %4 = getelementptr inbounds i8, ptr %0, i64 32
  %5 = load i32, ptr %4, align 8
  %6 = icmp sgt i32 %5, 0
  br i1 %6, label %_ZNK3gmx3Awh12isOutputStepEl.exit, label %_ZNK3gmx3Awh12isOutputStepEl.exit.thread

_ZNK3gmx3Awh12isOutputStepEl.exit:                ; preds = %3
  %7 = zext nneg i32 %5 to i64
  %8 = srem i64 %1, %7
  %9 = icmp eq i64 %8, 0
  br i1 %9, label %10, label %_ZNK3gmx3Awh12isOutputStepEl.exit.thread

10:                                               ; preds = %_ZNK3gmx3Awh12isOutputStepEl.exit
  %11 = load ptr, ptr %0, align 8
  %12 = getelementptr inbounds i8, ptr %0, i64 8
  %13 = load ptr, ptr %12, align 8
  %.not35 = icmp eq ptr %11, %13
  br i1 %.not35, label %._crit_edge, label %.lr.ph

.lr.ph:                                           ; preds = %10, %.lr.ph
  %.037 = phi i32 [ %15, %.lr.ph ], [ 0, %10 ]
  %.sroa.030.036 = phi ptr [ %16, %.lr.ph ], [ %11, %10 ]
  %14 = tail call noundef i32 @_ZNK3gmx4Bias25numEnergySubblocksToWriteEv(ptr noundef nonnull align 8 dereferenceable(556) %.sroa.030.036)
  %15 = add nsw i32 %14, %.037
  %16 = getelementptr inbounds i8, ptr %.sroa.030.036, i64 584
  %.not = icmp eq ptr %16, %13
  br i1 %.not, label %._crit_edge, label %.lr.ph

._crit_edge:                                      ; preds = %.lr.ph, %10
  %.0.lcssa = phi i32 [ 0, %10 ], [ %15, %.lr.ph ]
  %17 = getelementptr inbounds i8, ptr %2, i64 56
  %18 = load i32, ptr %17, align 8
  %19 = add nsw i32 %18, 1
  tail call void @_Z19add_blocks_enxframeP10t_enxframei(ptr noundef %2, i32 noundef %19)
  %20 = getelementptr inbounds i8, ptr %2, i64 64
  %21 = load ptr, ptr %20, align 8
  %22 = load i32, ptr %17, align 8
  %23 = sext i32 %22 to i64
  %24 = getelementptr %struct.t_enxblock, ptr %21, i64 %23
  %25 = getelementptr i8, ptr %24, i64 -24
  tail call void @_Z22add_subblocks_enxblockP10t_enxblocki(ptr noundef %25, i32 noundef %.0.lcssa)
  store i32 7, ptr %25, align 8
  %26 = load ptr, ptr %0, align 8
  %27 = load ptr, ptr %12, align 8
  %.not3338 = icmp eq ptr %26, %27
  br i1 %.not3338, label %_ZNK3gmx3Awh12isOutputStepEl.exit.thread, label %.lr.ph41

.lr.ph41:                                         ; preds = %._crit_edge, %.lr.ph41
  %.sroa.026.039 = phi ptr [ %28, %.lr.ph41 ], [ %26, %._crit_edge ]
  tail call void @_ZN3gmx4Bias50updateBiasStateSharedCorrelationTensorTimeIntegralEv(ptr noundef nonnull align 8 dereferenceable(556) %.sroa.026.039)
  %28 = getelementptr inbounds i8, ptr %.sroa.026.039, i64 584
  %.not33 = icmp eq ptr %28, %27
  br i1 %.not33, label %._crit_edge42, label %.lr.ph41

._crit_edge42:                                    ; preds = %.lr.ph41
  %.pre = load ptr, ptr %0, align 8
  %.pre48 = load ptr, ptr %12, align 8
  %.not3443 = icmp eq ptr %.pre, %.pre48
  br i1 %.not3443, label %_ZNK3gmx3Awh12isOutputStepEl.exit.thread, label %.lr.ph47

.lr.ph47:                                         ; preds = %._crit_edge42
  %29 = getelementptr i8, ptr %24, i64 -16
  br label %30

30:                                               ; preds = %.lr.ph47, %30
  %.02145 = phi i32 [ 0, %.lr.ph47 ], [ %35, %30 ]
  %.sroa.022.044 = phi ptr [ %.pre, %.lr.ph47 ], [ %36, %30 ]
  %31 = load ptr, ptr %29, align 8
  %32 = sext i32 %.02145 to i64
  %33 = getelementptr inbounds %struct.t_enxsubblock, ptr %31, i64 %32
  %34 = tail call noundef i32 @_ZNK3gmx4Bias22writeToEnergySubblocksEP13t_enxsubblock(ptr noundef nonnull align 8 dereferenceable(556) %.sroa.022.044, ptr noundef %33)
  %35 = add nsw i32 %34, %.02145
  %36 = getelementptr inbounds i8, ptr %.sroa.022.044, i64 584
  %.not34 = icmp eq ptr %36, %.pre48
  br i1 %.not34, label %_ZNK3gmx3Awh12isOutputStepEl.exit.thread, label %30

_ZNK3gmx3Awh12isOutputStepEl.exit.thread:         ; preds = %30, %._crit_edge, %._crit_edge42, %3, %_ZNK3gmx3Awh12isOutputStepEl.exit
  ret void
}